target datalayout = "e-m:e-p270:32:32-p271:32:32-p272:64:64-i64:64-i128:128-f80:128-n8:16:32:64-S128"
target triple = "x86_64-pc-linux-gnu"

%"class.pxrInternal_v0_24__pxrReserved__::pxr_double_conversion::Bignum" = type { i16, i16, [128 x i32] }

; Function Attrs: mustprogress nounwind uwtable
define void @_ZN32pxrInternal_v0_24__pxrReserved__21pxr_double_conversion6Bignum5ClampEv(ptr noundef nonnull align 4 dereferenceable(516) %0) #0 align 2 {
  %2 = alloca ptr, align 8
  store ptr %0, ptr %2, align 8
  %3 = load ptr, ptr %2, align 8
  br label %4

4:                                                ; preds = %19, %1
  %5 = getelementptr inbounds nuw %"class.pxrInternal_v0_24__pxrReserved__::pxr_double_conversion::Bignum", ptr %3, i32 0, i32 0
  %6 = load i16, ptr %5, align 4
  %7 = sext i16 %6 to i32
  %8 = icmp sgt i32 %7, 0
  br i1 %8, label %9, label %17

9:                                                ; preds = %4
  %10 = getelementptr inbounds nuw %"class.pxrInternal_v0_24__pxrReserved__::pxr_double_conversion::Bignum", ptr %3, i32 0, i32 0
  %11 = load i16, ptr %10, align 4
  %12 = sext i16 %11 to i32
  %13 = sub nsw i32 %12, 1
  %14 = call noundef nonnull align 4 dereferenceable(4) ptr @_ZN32pxrInternal_v0_24__pxrReserved__21pxr_double_conversion6Bignum8RawBigitEi(ptr noundef nonnull align 4 dereferenceable(516) %3, i32 noundef %13)
  %15 = load i32, ptr %14, align 4
  %16 = icmp eq i32 %15, 0
  br label %17

17:                                               ; preds = %9, %4
  %18 = phi i1 [ false, %4 ], [ %16, %9 ]
  br i1 %18, label %19, label %23

19:                                               ; preds = %17
  %20 = getelementptr inbounds nuw %"class.pxrInternal_v0_24__pxrReserved__::pxr_double_conversion::Bignum", ptr %3, i32 0, i32 0
  %21 = load i16, ptr %20, align 4
  %22 = add i16 %21, -1
  store i16 %22, ptr %20, align 4
  br label %4, !llvm.loop !11

23:                                               ; preds = %17
  %24 = getelementptr inbounds nuw %"class.pxrInternal_v0_24__pxrReserved__::pxr_double_conversion::Bignum", ptr %3, i32 0, i32 0
  %25 = load i16, ptr %24, align 4
  %26 = sext i16 %25 to i32
  %27 = icmp eq i32 %26, 0
  br i1 %27, label %28, label %30

28:                                               ; preds = %23
  %29 = getelementptr inbounds nuw %"class.pxrInternal_v0_24__pxrReserved__::pxr_double_conversion::Bignum", ptr %3, i32 0, i32 1
  store i16 0, ptr %29, align 2
  br label %30

30:                                               ; preds = %28, %23
  ret void
}

; Function Attrs: mustprogress nounwind uwtable
define noundef nonnull align 4 dereferenceable(4) ptr @_ZN32pxrInternal_v0_24__pxrReserved__21pxr_double_conversion6Bignum8RawBigitEi(ptr noundef nonnull align 4 dereferenceable(516) %0, i32 noundef %1) #0 align 2 {
  %3 = alloca ptr, align 8
  %4 = alloca i32, align 4
  store ptr %0, ptr %3, align 8
  store i32 %1, ptr %4, align 4
  %5 = load ptr, ptr %3, align 8
  %6 = getelementptr inbounds nuw %"class.pxrInternal_v0_24__pxrReserved__::pxr_double_conversion::Bignum", ptr %5, i32 0, i32 2
  %7 = load i32, ptr %4, align 4
  %8 = sext i32 %7 to i64
  %9 = getelementptr inbounds [128 x i32], ptr %6, i64 0, i64 %8
  ret ptr %9
}

; Function Attrs: mustprogress nounwind uwtable
define linkonce_odr void @_ZN32pxrInternal_v0_24__pxrReserved__21pxr_double_conversion6Bignum14EnsureCapacityEi(i32 noundef %0) #0 comdat align 2 {
  %2 = alloca i32, align 4
  store i32 %0, ptr %2, align 4
  %3 = load i32, ptr %2, align 4
  %4 = icmp sgt i32 %3, 128
  br i1 %4, label %5, label %6

5:                                                ; preds = %1
  call void @abort() #4
  unreachable

6:                                                ; preds = %1
  ret void
}

; Function Attrs: mustprogress uwtable
define void @_ZN32pxrInternal_v0_24__pxrReserved__21pxr_double_conversion6Bignum6SquareEv(ptr noundef nonnull align 4 dereferenceable(516) %0) #1 align 2 {
  %2 = alloca ptr, align 8
  %3 = alloca i32, align 4
  %4 = alloca i64, align 8
  %5 = alloca i32, align 4
  %6 = alloca i32, align 4
  %7 = alloca i32, align 4
  %8 = alloca i32, align 4
  %9 = alloca i32, align 4
  %10 = alloca i32, align 4
  %11 = alloca i32, align 4
  %12 = alloca i32, align 4
  %13 = alloca i32, align 4
  %14 = alloca i32, align 4
  %15 = alloca i32, align 4
  %16 = alloca i32, align 4
  store ptr %0, ptr %2, align 8
  %17 = load ptr, ptr %2, align 8
  %18 = getelementptr inbounds nuw %"class.pxrInternal_v0_24__pxrReserved__::pxr_double_conversion::Bignum", ptr %17, i32 0, i32 0
  %19 = load i16, ptr %18, align 4
  %20 = sext i16 %19 to i32
  %21 = mul nsw i32 2, %20
  store i32 %21, ptr %3, align 4
  %22 = load i32, ptr %3, align 4
  call void @_ZN32pxrInternal_v0_24__pxrReserved__21pxr_double_conversion6Bignum14EnsureCapacityEi(i32 noundef %22)
  %23 = getelementptr inbounds nuw %"class.pxrInternal_v0_24__pxrReserved__::pxr_double_conversion::Bignum", ptr %17, i32 0, i32 0
  %24 = load i16, ptr %23, align 4
  %25 = sext i16 %24 to i32
  %26 = icmp sle i32 256, %25
  br i1 %26, label %27, label %28

27:                                               ; preds = %1
  call void @abort() #4
  unreachable

28:                                               ; preds = %1
  store i64 0, ptr %4, align 8
  %29 = getelementptr inbounds nuw %"class.pxrInternal_v0_24__pxrReserved__::pxr_double_conversion::Bignum", ptr %17, i32 0, i32 0
  %30 = load i16, ptr %29, align 4
  %31 = sext i16 %30 to i32
  store i32 %31, ptr %5, align 4
  store i32 0, ptr %6, align 4
  br label %32

32:                                               ; preds = %46, %28
  %33 = load i32, ptr %6, align 4
  %34 = getelementptr inbounds nuw %"class.pxrInternal_v0_24__pxrReserved__::pxr_double_conversion::Bignum", ptr %17, i32 0, i32 0
  %35 = load i16, ptr %34, align 4
  %36 = sext i16 %35 to i32
  %37 = icmp slt i32 %33, %36
  br i1 %37, label %38, label %49

38:                                               ; preds = %32
  %39 = load i32, ptr %6, align 4
  %40 = call noundef nonnull align 4 dereferenceable(4) ptr @_ZN32pxrInternal_v0_24__pxrReserved__21pxr_double_conversion6Bignum8RawBigitEi(ptr noundef nonnull align 4 dereferenceable(516) %17, i32 noundef %39)
  %41 = load i32, ptr %40, align 4
  %42 = load i32, ptr %5, align 4
  %43 = load i32, ptr %6, align 4
  %44 = add nsw i32 %42, %43
  %45 = call noundef nonnull align 4 dereferenceable(4) ptr @_ZN32pxrInternal_v0_24__pxrReserved__21pxr_double_conversion6Bignum8RawBigitEi(ptr noundef nonnull align 4 dereferenceable(516) %17, i32 noundef %44)
  store i32 %41, ptr %45, align 4
  br label %46

46:                                               ; preds = %38
  %47 = load i32, ptr %6, align 4
  %48 = add nsw i32 %47, 1
  store i32 %48, ptr %6, align 4
  br label %32, !llvm.loop !25

49:                                               ; preds = %32
  store i32 0, ptr %7, align 4
  br label %50

50:                                               ; preds = %91, %49
  %51 = load i32, ptr %7, align 4
  %52 = getelementptr inbounds nuw %"class.pxrInternal_v0_24__pxrReserved__::pxr_double_conversion::Bignum", ptr %17, i32 0, i32 0
  %53 = load i16, ptr %52, align 4
  %54 = sext i16 %53 to i32
  %55 = icmp slt i32 %51, %54
  br i1 %55, label %56, label %94

56:                                               ; preds = %50
  %57 = load i32, ptr %7, align 4
  store i32 %57, ptr %8, align 4
  store i32 0, ptr %9, align 4
  br label %58

58:                                               ; preds = %61, %56
  %59 = load i32, ptr %8, align 4
  %60 = icmp sge i32 %59, 0
  br i1 %60, label %61, label %83

61:                                               ; preds = %58
  %62 = load i32, ptr %5, align 4
  %63 = load i32, ptr %8, align 4
  %64 = add nsw i32 %62, %63
  %65 = call noundef nonnull align 4 dereferenceable(4) ptr @_ZN32pxrInternal_v0_24__pxrReserved__21pxr_double_conversion6Bignum8RawBigitEi(ptr noundef nonnull align 4 dereferenceable(516) %17, i32 noundef %64)
  %66 = load i32, ptr %65, align 4
  store i32 %66, ptr %10, align 4
  %67 = load i32, ptr %5, align 4
  %68 = load i32, ptr %9, align 4
  %69 = add nsw i32 %67, %68
  %70 = call noundef nonnull align 4 dereferenceable(4) ptr @_ZN32pxrInternal_v0_24__pxrReserved__21pxr_double_conversion6Bignum8RawBigitEi(ptr noundef nonnull align 4 dereferenceable(516) %17, i32 noundef %69)
  %71 = load i32, ptr %70, align 4
  store i32 %71, ptr %11, align 4
  %72 = load i32, ptr %10, align 4
  %73 = zext i32 %72 to i64
  %74 = load i32, ptr %11, align 4
  %75 = zext i32 %74 to i64
  %76 = mul i64 %73, %75
  %77 = load i64, ptr %4, align 8
  %78 = add i64 %77, %76
  store i64 %78, ptr %4, align 8
  %79 = load i32, ptr %8, align 4
  %80 = add nsw i32 %79, -1
  store i32 %80, ptr %8, align 4
  %81 = load i32, ptr %9, align 4
  %82 = add nsw i32 %81, 1
  store i32 %82, ptr %9, align 4
  br label %58, !llvm.loop !26

83:                                               ; preds = %58
  %84 = load i64, ptr %4, align 8
  %85 = trunc i64 %84 to i32
  %86 = and i32 %85, 268435455
  %87 = load i32, ptr %7, align 4
  %88 = call noundef nonnull align 4 dereferenceable(4) ptr @_ZN32pxrInternal_v0_24__pxrReserved__21pxr_double_conversion6Bignum8RawBigitEi(ptr noundef nonnull align 4 dereferenceable(516) %17, i32 noundef %87)
  store i32 %86, ptr %88, align 4
  %89 = load i64, ptr %4, align 8
  %90 = lshr i64 %89, 28
  store i64 %90, ptr %4, align 8
  br label %91

91:                                               ; preds = %83
  %92 = load i32, ptr %7, align 4
  %93 = add nsw i32 %92, 1
  store i32 %93, ptr %7, align 4
  br label %50, !llvm.loop !27

94:                                               ; preds = %50
  %95 = getelementptr inbounds nuw %"class.pxrInternal_v0_24__pxrReserved__::pxr_double_conversion::Bignum", ptr %17, i32 0, i32 0
  %96 = load i16, ptr %95, align 4
  %97 = sext i16 %96 to i32
  store i32 %97, ptr %12, align 4
  br label %98

98:                                               ; preds = %146, %94
  %99 = load i32, ptr %12, align 4
  %100 = load i32, ptr %3, align 4
  %101 = icmp slt i32 %99, %100
  br i1 %101, label %102, label %149

102:                                              ; preds = %98
  %103 = getelementptr inbounds nuw %"class.pxrInternal_v0_24__pxrReserved__::pxr_double_conversion::Bignum", ptr %17, i32 0, i32 0
  %104 = load i16, ptr %103, align 4
  %105 = sext i16 %104 to i32
  %106 = sub nsw i32 %105, 1
  store i32 %106, ptr %13, align 4
  %107 = load i32, ptr %12, align 4
  %108 = load i32, ptr %13, align 4
  %109 = sub nsw i32 %107, %108
  store i32 %109, ptr %14, align 4
  br label %110

110:                                              ; preds = %116, %102
  %111 = load i32, ptr %14, align 4
  %112 = getelementptr inbounds nuw %"class.pxrInternal_v0_24__pxrReserved__::pxr_double_conversion::Bignum", ptr %17, i32 0, i32 0
  %113 = load i16, ptr %112, align 4
  %114 = sext i16 %113 to i32
  %115 = icmp slt i32 %111, %114
  br i1 %115, label %116, label %138

116:                                              ; preds = %110
  %117 = load i32, ptr %5, align 4
  %118 = load i32, ptr %13, align 4
  %119 = add nsw i32 %117, %118
  %120 = call noundef nonnull align 4 dereferenceable(4) ptr @_ZN32pxrInternal_v0_24__pxrReserved__21pxr_double_conversion6Bignum8RawBigitEi(ptr noundef nonnull align 4 dereferenceable(516) %17, i32 noundef %119)
  %121 = load i32, ptr %120, align 4
  store i32 %121, ptr %15, align 4
  %122 = load i32, ptr %5, align 4
  %123 = load i32, ptr %14, align 4
  %124 = add nsw i32 %122, %123
  %125 = call noundef nonnull align 4 dereferenceable(4) ptr @_ZN32pxrInternal_v0_24__pxrReserved__21pxr_double_conversion6Bignum8RawBigitEi(ptr noundef nonnull align 4 dereferenceable(516) %17, i32 noundef %124)
  %126 = load i32, ptr %125, align 4
  store i32 %126, ptr %16, align 4
  %127 = load i32, ptr %15, align 4
  %128 = zext i32 %127 to i64
  %129 = load i32, ptr %16, align 4
  %130 = zext i32 %129 to i64
  %131 = mul i64 %128, %130
  %132 = load i64, ptr %4, align 8
  %133 = add i64 %132, %131
  store i64 %133, ptr %4, align 8
  %134 = load i32, ptr %13, align 4
  %135 = add nsw i32 %134, -1
  store i32 %135, ptr %13, align 4
  %136 = load i32, ptr %14, align 4
  %137 = add nsw i32 %136, 1
  store i32 %137, ptr %14, align 4
  br label %110, !llvm.loop !28

138:                                              ; preds = %110
  %139 = load i64, ptr %4, align 8
  %140 = trunc i64 %139 to i32
  %141 = and i32 %140, 268435455
  %142 = load i32, ptr %12, align 4
  %143 = call noundef nonnull align 4 dereferenceable(4) ptr @_ZN32pxrInternal_v0_24__pxrReserved__21pxr_double_conversion6Bignum8RawBigitEi(ptr noundef nonnull align 4 dereferenceable(516) %17, i32 noundef %142)
  store i32 %141, ptr %143, align 4
  %144 = load i64, ptr %4, align 8
  %145 = lshr i64 %144, 28
  store i64 %145, ptr %4, align 8
  br label %146

146:                                              ; preds = %138
  %147 = load i32, ptr %12, align 4
  %148 = add nsw i32 %147, 1
  store i32 %148, ptr %12, align 4
  br label %98, !llvm.loop !29

149:                                              ; preds = %98
  %150 = load i32, ptr %3, align 4
  %151 = trunc i32 %150 to i16
  %152 = getelementptr inbounds nuw %"class.pxrInternal_v0_24__pxrReserved__::pxr_double_conversion::Bignum", ptr %17, i32 0, i32 0
  store i16 %151, ptr %152, align 4
  %153 = getelementptr inbounds nuw %"class.pxrInternal_v0_24__pxrReserved__::pxr_double_conversion::Bignum", ptr %17, i32 0, i32 1
  %154 = load i16, ptr %153, align 2
  %155 = sext i16 %154 to i32
  %156 = mul nsw i32 %155, 2
  %157 = trunc i32 %156 to i16
  store i16 %157, ptr %153, align 2
  call void @_ZN32pxrInternal_v0_24__pxrReserved__21pxr_double_conversion6Bignum5ClampEv(ptr noundef nonnull align 4 dereferenceable(516) %17)
  ret void
}