; Function Attrs: mustprogress nofree nounwind uwtable
define void @_ZN32pxrInternal_v0_24__pxrReserved__21pxr_double_conversion6Bignum6SquareEv(ptr nocapture noundef nonnull align 4 dereferenceable(516) %0) local_unnamed_addr #4 align 2 {
  %2 = load i16, ptr %0, align 4
  %3 = sext i16 %2 to i32
  %4 = shl nsw i32 %3, 1
  %5 = icmp sgt i16 %2, 64
  br i1 %5, label %11, label %_ZN32pxrInternal_v0_24__pxrReserved__21pxr_double_conversion6Bignum14EnsureCapacityEi.exit.preheader

_ZN32pxrInternal_v0_24__pxrReserved__21pxr_double_conversion6Bignum14EnsureCapacityEi.exit.preheader: ; preds = %1
  %6 = icmp sgt i16 %2, 0
  br i1 %6, label %.lr.ph, label %.preheader52

.lr.ph:                                           ; preds = %_ZN32pxrInternal_v0_24__pxrReserved__21pxr_double_conversion6Bignum14EnsureCapacityEi.exit.preheader
  %7 = getelementptr inbounds nuw i8, ptr %0, i64 4
  %8 = zext nneg i16 %2 to i64
  %9 = load i16, ptr %0, align 4
  %10 = sext i16 %9 to i64
  br label %_ZN32pxrInternal_v0_24__pxrReserved__21pxr_double_conversion6Bignum14EnsureCapacityEi.exit

11:                                               ; preds = %1
  tail call void @abort() #11
  unreachable

.preheader52.loopexit:                            ; preds = %_ZN32pxrInternal_v0_24__pxrReserved__21pxr_double_conversion6Bignum14EnsureCapacityEi.exit
  %12 = sext i16 %9 to i32
  br label %.preheader52

.preheader52:                                     ; preds = %.preheader52.loopexit, %_ZN32pxrInternal_v0_24__pxrReserved__21pxr_double_conversion6Bignum14EnsureCapacityEi.exit.preheader
  %.lcssa = phi i32 [ %3, %_ZN32pxrInternal_v0_24__pxrReserved__21pxr_double_conversion6Bignum14EnsureCapacityEi.exit.preheader ], [ %12, %.preheader52.loopexit ]
  %13 = icmp sgt i32 %.lcssa, 0
  br i1 %13, label %.preheader51.lr.ph, label %.preheader

.preheader51.lr.ph:                               ; preds = %.preheader52
  %14 = getelementptr inbounds nuw i8, ptr %0, i64 4
  %15 = sext i16 %2 to i64
  %wide.trip.count94 = zext nneg i32 %.lcssa to i64
  br label %.lr.ph57.preheader

_ZN32pxrInternal_v0_24__pxrReserved__21pxr_double_conversion6Bignum14EnsureCapacityEi.exit: ; preds = %.lr.ph, %_ZN32pxrInternal_v0_24__pxrReserved__21pxr_double_conversion6Bignum14EnsureCapacityEi.exit
  %indvars.iv = phi i64 [ 0, %.lr.ph ], [ %indvars.iv.next, %_ZN32pxrInternal_v0_24__pxrReserved__21pxr_double_conversion6Bignum14EnsureCapacityEi.exit ]
  %16 = getelementptr inbounds [128 x i32], ptr %7, i64 0, i64 %indvars.iv
  %17 = load i32, ptr %16, align 4
  %18 = add nuw nsw i64 %indvars.iv, %8
  %19 = getelementptr inbounds [128 x i32], ptr %7, i64 0, i64 %18
  store i32 %17, ptr %19, align 4
  %indvars.iv.next = add nuw nsw i64 %indvars.iv, 1
  %20 = icmp slt i64 %indvars.iv.next, %10
  br i1 %20, label %_ZN32pxrInternal_v0_24__pxrReserved__21pxr_double_conversion6Bignum14EnsureCapacityEi.exit, label %.preheader52.loopexit, !llvm.loop !24

.lr.ph57.preheader:                               ; preds = %._crit_edge, %.preheader51.lr.ph
  %indvars.iv89 = phi i64 [ 1, %.preheader51.lr.ph ], [ %indvars.iv.next90, %._crit_edge ]
  %indvars.iv78 = phi i64 [ 0, %.preheader51.lr.ph ], [ %indvars.iv.next79, %._crit_edge ]
  %.060 = phi i64 [ 0, %.preheader51.lr.ph ], [ %38, %._crit_edge ]
  br label %.lr.ph57

.preheader:                                       ; preds = %._crit_edge, %.preheader52
  %.0.lcssa = phi i64 [ 0, %.preheader52 ], [ %38, %._crit_edge ]
  %21 = icmp slt i32 %.lcssa, %4
  br i1 %21, label %.lr.ph71, label %._crit_edge72

.lr.ph71:                                         ; preds = %.preheader
  %22 = getelementptr inbounds nuw i8, ptr %0, i64 4
  %23 = sext i16 %2 to i64
  %24 = sext i32 %.lcssa to i64
  %wide.trip.count = sext i32 %4 to i64
  %invariant.op = add nsw i64 %23, -1
  br label %39

.lr.ph57:                                         ; preds = %.lr.ph57.preheader, %.lr.ph57
  %indvars.iv82 = phi i64 [ 0, %.lr.ph57.preheader ], [ %indvars.iv.next83, %.lr.ph57 ]
  %indvars.iv80 = phi i64 [ %indvars.iv78, %.lr.ph57.preheader ], [ %indvars.iv.next81, %.lr.ph57 ]
  %.156 = phi i64 [ %.060, %.lr.ph57.preheader ], [ %34, %.lr.ph57 ]
  %25 = add nsw i64 %indvars.iv80, %15
  %26 = getelementptr inbounds [128 x i32], ptr %14, i64 0, i64 %25
  %27 = load i32, ptr %26, align 4
  %28 = add nsw i64 %indvars.iv82, %15
  %29 = getelementptr inbounds [128 x i32], ptr %14, i64 0, i64 %28
  %30 = load i32, ptr %29, align 4
  %31 = zext i32 %27 to i64
  %32 = zext i32 %30 to i64
  %33 = mul nuw i64 %32, %31
  %34 = add i64 %33, %.156
  %indvars.iv.next81 = add nsw i64 %indvars.iv80, -1
  %indvars.iv.next83 = add nuw nsw i64 %indvars.iv82, 1
  %exitcond.not = icmp eq i64 %indvars.iv.next83, %indvars.iv89
  br i1 %exitcond.not, label %._crit_edge, label %.lr.ph57, !llvm.loop !25

._crit_edge:                                      ; preds = %.lr.ph57
  %35 = trunc i64 %34 to i32
  %36 = and i32 %35, 268435455
  %37 = getelementptr inbounds [128 x i32], ptr %14, i64 0, i64 %indvars.iv78
  store i32 %36, ptr %37, align 4
  %38 = lshr i64 %34, 28
  %indvars.iv.next79 = add nuw nsw i64 %indvars.iv78, 1
  %indvars.iv.next90 = add nuw nsw i64 %indvars.iv89, 1
  %exitcond95.not = icmp eq i64 %indvars.iv.next79, %wide.trip.count94
  br i1 %exitcond95.not, label %.preheader, label %.lr.ph57.preheader, !llvm.loop !26

39:                                               ; preds = %.lr.ph71, %._crit_edge67
  %indvars.iv105 = phi i64 [ %24, %.lr.ph71 ], [ %indvars.iv.next106, %._crit_edge67 ]
  %indvars.iv96.in = phi i32 [ %.lcssa, %.lr.ph71 ], [ %indvars.iv96, %._crit_edge67 ]
  %.270 = phi i64 [ %.0.lcssa, %.lr.ph71 ], [ %62, %._crit_edge67 ]
  %indvars.iv96 = add nsw i32 %indvars.iv96.in, 1
  %indvars107 = trunc i64 %indvars.iv105 to i32
  %40 = load i16, ptr %0, align 4
  %41 = sext i16 %40 to i32
  %42 = add nsw i32 %41, -1
  %43 = sub nsw i32 %indvars107, %42
  %44 = icmp slt i32 %43, %41
  br i1 %44, label %.lr.ph66.preheader, label %._crit_edge67

.lr.ph66.preheader:                               ; preds = %39
  %45 = sub i32 %indvars.iv96, %41
  %46 = sext i32 %45 to i64
  %47 = sext i16 %40 to i64
  %48 = sext i16 %40 to i64
  br label %.lr.ph66

.lr.ph66:                                         ; preds = %.lr.ph66.preheader, %.lr.ph66
  %indvars.iv100.in = phi i64 [ %48, %.lr.ph66.preheader ], [ %indvars.iv100, %.lr.ph66 ]
  %indvars.iv98 = phi i64 [ %46, %.lr.ph66.preheader ], [ %indvars.iv.next99, %.lr.ph66 ]
  %.364 = phi i64 [ %.270, %.lr.ph66.preheader ], [ %57, %.lr.ph66 ]
  %indvars.iv100 = add nsw i64 %indvars.iv100.in, -1
  %.reass = add i64 %indvars.iv100.in, %invariant.op
  %49 = getelementptr inbounds [128 x i32], ptr %22, i64 0, i64 %.reass
  %50 = load i32, ptr %49, align 4
  %51 = add nsw i64 %indvars.iv98, %23
  %52 = getelementptr inbounds [128 x i32], ptr %22, i64 0, i64 %51
  %53 = load i32, ptr %52, align 4
  %54 = zext i32 %50 to i64
  %55 = zext i32 %53 to i64
  %56 = mul nuw i64 %55, %54
  %57 = add i64 %56, %.364
  %indvars.iv.next99 = add nsw i64 %indvars.iv98, 1
  %58 = icmp slt i64 %indvars.iv.next99, %47
  br i1 %58, label %.lr.ph66, label %._crit_edge67, !llvm.loop !27

._crit_edge67:                                    ; preds = %.lr.ph66, %39
  %.3.lcssa = phi i64 [ %.270, %39 ], [ %57, %.lr.ph66 ]
  %59 = trunc i64 %.3.lcssa to i32
  %60 = and i32 %59, 268435455
  %61 = getelementptr inbounds [128 x i32], ptr %22, i64 0, i64 %indvars.iv105
  store i32 %60, ptr %61, align 4
  %62 = lshr i64 %.3.lcssa, 28
  %indvars.iv.next106 = add nsw i64 %indvars.iv105, 1
  %exitcond108.not = icmp eq i64 %indvars.iv.next106, %wide.trip.count
  br i1 %exitcond108.not, label %._crit_edge72, label %39, !llvm.loop !28

._crit_edge72:                                    ; preds = %._crit_edge67, %.preheader
  %63 = trunc i32 %4 to i16
  store i16 %63, ptr %0, align 4
  %64 = getelementptr inbounds nuw i8, ptr %0, i64 2
  %65 = load i16, ptr %64, align 2
  %66 = shl i16 %65, 1
  store i16 %66, ptr %64, align 2
  %67 = icmp sgt i16 %63, 0
  br i1 %67, label %.lr.ph.i, label %.critedge.i

.lr.ph.i:                                         ; preds = %._crit_edge72
  %68 = getelementptr inbounds nuw i8, ptr %0, i64 4
  br label %69

69:                                               ; preds = %77, %.lr.ph.i
  %70 = phi i16 [ %63, %.lr.ph.i ], [ %78, %77 ]
  %71 = zext nneg i16 %70 to i64
  %72 = add nuw nsw i64 %71, 4294967295
  %73 = and i64 %72, 4294967295
  %74 = getelementptr inbounds [128 x i32], ptr %68, i64 0, i64 %73
  %75 = load i32, ptr %74, align 4
  %76 = icmp eq i32 %75, 0
  br i1 %76, label %77, label %_ZN32pxrInternal_v0_24__pxrReserved__21pxr_double_conversion6Bignum5ClampEv.exit

77:                                               ; preds = %69
  %78 = add nsw i16 %70, -1
  store i16 %78, ptr %0, align 4
  %79 = icmp sgt i16 %70, 1
  br i1 %79, label %69, label %.critedge.thread3.i, !llvm.loop !9

.critedge.i:                                      ; preds = %._crit_edge72
  %80 = icmp eq i16 %63, 0
  br i1 %80, label %.critedge.thread3.i, label %_ZN32pxrInternal_v0_24__pxrReserved__21pxr_double_conversion6Bignum5ClampEv.exit

.critedge.thread3.i:                              ; preds = %77, %.critedge.i
  store i16 0, ptr %64, align 2
  br label %_ZN32pxrInternal_v0_24__pxrReserved__21pxr_double_conversion6Bignum5ClampEv.exit

_ZN32pxrInternal_v0_24__pxrReserved__21pxr_double_conversion6Bignum5ClampEv.exit: ; preds = %69, %.critedge.i, %.critedge.thread3.i
  ret void
}